target datalayout = "e-m:e-p270:32:32-p271:32:32-p272:64:64-i64:64-i128:128-f80:128-n8:16:32:64-S128"
target triple = "x86_64-pc-linux-gnu"

%"class.llvm::itanium_demangle::NodeArray" = type { ptr, i64 }
%"struct.(anonymous namespace)::FoldingSetNodeIDBuilder" = type { ptr }

; Function Attrs: mustprogress nounwind uwtable
define linkonce_odr hidden void @_ZN4llvm16FoldingSetNodeID10AddPointerEPKv(ptr noundef nonnull align 8 dereferenceable(144) %0, ptr noundef %1) #0 comdat align 2 {
  %3 = alloca ptr, align 8
  %4 = alloca ptr, align 8
  store ptr %0, ptr %3, align 8
  store ptr %1, ptr %4, align 8
  %5 = load ptr, ptr %3, align 8
  %6 = load ptr, ptr %4, align 8
  %7 = ptrtoint ptr %6 to i64
  call void @_ZN4llvm16FoldingSetNodeID10AddIntegerEm(ptr noundef nonnull align 8 dereferenceable(144) %5, i64 noundef %7)
  ret void
}

; Function Attrs: mustprogress nounwind uwtable
define linkonce_odr hidden noundef ptr @_ZNK4llvm16itanium_demangle9NodeArray3endEv(ptr noundef nonnull align 8 dereferenceable(16) %0) #0 comdat align 2 {
  %2 = alloca ptr, align 8
  store ptr %0, ptr %2, align 8
  %3 = load ptr, ptr %2, align 8
  %4 = getelementptr inbounds nuw %"class.llvm::itanium_demangle::NodeArray", ptr %3, i32 0, i32 0
  %5 = load ptr, ptr %4, align 8
  %6 = getelementptr inbounds nuw %"class.llvm::itanium_demangle::NodeArray", ptr %3, i32 0, i32 1
  %7 = load i64, ptr %6, align 8
  %8 = getelementptr inbounds ptr, ptr %5, i64 %7
  ret ptr %8
}

; Function Attrs: mustprogress nounwind uwtable
define linkonce_odr hidden noundef ptr @_ZNK4llvm16itanium_demangle9NodeArray5beginEv(ptr noundef nonnull align 8 dereferenceable(16) %0) #0 comdat align 2 {
  %2 = alloca ptr, align 8
  store ptr %0, ptr %2, align 8
  %3 = load ptr, ptr %2, align 8
  %4 = getelementptr inbounds nuw %"class.llvm::itanium_demangle::NodeArray", ptr %3, i32 0, i32 0
  %5 = load ptr, ptr %4, align 8
  ret ptr %5
}

; Function Attrs: mustprogress nounwind uwtable
define linkonce_odr hidden void @_ZN4llvm16FoldingSetNodeID10AddIntegerEm(ptr noundef nonnull align 8 dereferenceable(144) %0, i64 noundef %1) #0 comdat align 2 {
  %3 = alloca ptr, align 8
  %4 = alloca i64, align 8
  store ptr %0, ptr %3, align 8
  store i64 %1, ptr %4, align 8
  %5 = load ptr, ptr %3, align 8
  %6 = load i64, ptr %4, align 8
  call void @_ZN4llvm16FoldingSetNodeID10AddIntegerEy(ptr noundef nonnull align 8 dereferenceable(144) %5, i64 noundef %6)
  ret void
}

; Function Attrs: mustprogress nounwind uwtable
define linkonce_odr hidden noundef i64 @_ZNK4llvm16itanium_demangle9NodeArray4sizeEv(ptr noundef nonnull align 8 dereferenceable(16) %0) #0 comdat align 2 {
  %2 = alloca ptr, align 8
  store ptr %0, ptr %2, align 8
  %3 = load ptr, ptr %2, align 8
  %4 = getelementptr inbounds nuw %"class.llvm::itanium_demangle::NodeArray", ptr %3, i32 0, i32 1
  %5 = load i64, ptr %4, align 8
  ret i64 %5
}

; Function Attrs: mustprogress nounwind uwtable
define internal void @_ZN12_GLOBAL__N_123FoldingSetNodeIDBuilderclIN4llvm16itanium_demangle4Node4PrecEEENSt9enable_ifIXoosr3stdE13is_integral_vIT_Esr3stdE9is_enum_vIS7_EEvE4typeES7_(ptr noundef nonnull align 8 dereferenceable(8) %0, i32 noundef %1) #0 align 2 {
  %3 = alloca ptr, align 8
  %4 = alloca i32, align 4
  store ptr %0, ptr %3, align 8
  store i32 %1, ptr %4, align 4
  %5 = load ptr, ptr %3, align 8
  %6 = getelementptr inbounds nuw %"struct.(anonymous namespace)::FoldingSetNodeIDBuilder", ptr %5, i32 0, i32 0
  %7 = load ptr, ptr %6, align 8
  %8 = load i32, ptr %4, align 4
  %9 = sext i32 %8 to i64
  call void @_ZN4llvm16FoldingSetNodeID10AddIntegerEy(ptr noundef nonnull align 8 dereferenceable(144) %7, i64 noundef %9)
  ret void
}

; Function Attrs: mustprogress nounwind uwtable
define internal void @_ZN12_GLOBAL__N_123FoldingSetNodeIDBuilderclIbEENSt9enable_ifIXoosr3stdE13is_integral_vIT_Esr3stdE9is_enum_vIS3_EEvE4typeES3_(ptr noundef nonnull align 8 dereferenceable(8) %0, i1 noundef zeroext %1) #0 align 2 {
  %3 = alloca ptr, align 8
  %4 = alloca i8, align 1
  store ptr %0, ptr %3, align 8
  %5 = zext i1 %1 to i8
  store i8 %5, ptr %4, align 1
  %6 = load ptr, ptr %3, align 8
  %7 = getelementptr inbounds nuw %"struct.(anonymous namespace)::FoldingSetNodeIDBuilder", ptr %6, i32 0, i32 0
  %8 = load ptr, ptr %7, align 8
  %9 = load i8, ptr %4, align 1
  %10 = trunc i8 %9 to i1
  %11 = zext i1 %10 to i64
  call void @_ZN4llvm16FoldingSetNodeID10AddIntegerEy(ptr noundef nonnull align 8 dereferenceable(144) %8, i64 noundef %11)
  ret void
}

; Function Attrs: mustprogress nounwind uwtable
define internal void @_ZN12_GLOBAL__N_123FoldingSetNodeIDBuilderclEPKN4llvm16itanium_demangle4NodeE(ptr noundef nonnull align 8 dereferenceable(8) %0, ptr noundef %1) #0 align 2 {
  %3 = alloca ptr, align 8
  %4 = alloca ptr, align 8
  store ptr %0, ptr %3, align 8
  store ptr %1, ptr %4, align 8
  %5 = load ptr, ptr %3, align 8
  %6 = getelementptr inbounds nuw %"struct.(anonymous namespace)::FoldingSetNodeIDBuilder", ptr %5, i32 0, i32 0
  %7 = load ptr, ptr %6, align 8
  %8 = load ptr, ptr %4, align 8
  call void @_ZN4llvm16FoldingSetNodeID10AddPointerEPKv(ptr noundef nonnull align 8 dereferenceable(144) %7, ptr noundef %8)
  ret void
}

; Function Attrs: mustprogress nounwind uwtable
define internal void @_ZN12_GLOBAL__N_123FoldingSetNodeIDBuilderclEN4llvm16itanium_demangle9NodeArrayE(ptr noundef nonnull align 8 dereferenceable(8) %0, ptr %1, i64 %2) #0 align 2 {
  %4 = alloca %"class.llvm::itanium_demangle::NodeArray", align 8
  %5 = alloca ptr, align 8
  %6 = alloca ptr, align 8
  %7 = alloca ptr, align 8
  %8 = alloca ptr, align 8
  %9 = alloca ptr, align 8
  %10 = getelementptr inbounds nuw { ptr, i64 }, ptr %4, i32 0, i32 0
  store ptr %1, ptr %10, align 8
  %11 = getelementptr inbounds nuw { ptr, i64 }, ptr %4, i32 0, i32 1
  store i64 %2, ptr %11, align 8
  store ptr %0, ptr %5, align 8
  %12 = load ptr, ptr %5, align 8
  %13 = getelementptr inbounds nuw %"struct.(anonymous namespace)::FoldingSetNodeIDBuilder", ptr %12, i32 0, i32 0
  %14 = load ptr, ptr %13, align 8
  %15 = call noundef i64 @_ZNK4llvm16itanium_demangle9NodeArray4sizeEv(ptr noundef nonnull align 8 dereferenceable(16) %4)
  call void @_ZN4llvm16FoldingSetNodeID10AddIntegerEm(ptr noundef nonnull align 8 dereferenceable(144) %14, i64 noundef %15)
  store ptr %4, ptr %6, align 8
  %16 = load ptr, ptr %6, align 8
  %17 = call noundef ptr @_ZNK4llvm16itanium_demangle9NodeArray5beginEv(ptr noundef nonnull align 8 dereferenceable(16) %16)
  store ptr %17, ptr %7, align 8
  %18 = load ptr, ptr %6, align 8
  %19 = call noundef ptr @_ZNK4llvm16itanium_demangle9NodeArray3endEv(ptr noundef nonnull align 8 dereferenceable(16) %18)
  store ptr %19, ptr %8, align 8
  br label %20

20:                                               ; preds = %28, %3
  %21 = load ptr, ptr %7, align 8
  %22 = load ptr, ptr %8, align 8
  %23 = icmp ne ptr %21, %22
  br i1 %23, label %24, label %31

24:                                               ; preds = %20
  %25 = load ptr, ptr %7, align 8
  %26 = load ptr, ptr %25, align 8
  store ptr %26, ptr %9, align 8
  %27 = load ptr, ptr %9, align 8
  call void @_ZN12_GLOBAL__N_123FoldingSetNodeIDBuilderclEPKN4llvm16itanium_demangle4NodeE(ptr noundef nonnull align 8 dereferenceable(8) %12, ptr noundef %27)
  br label %28

28:                                               ; preds = %24
  %29 = load ptr, ptr %7, align 8
  %30 = getelementptr inbounds ptr, ptr %29, i32 1
  store ptr %30, ptr %7, align 8
  br label %20

31:                                               ; preds = %20
  ret void
}

; Function Attrs: mustprogress nounwind uwtable
define internal void @_ZN12_GLOBAL__N_123FoldingSetNodeIDBuilderclIN4llvm16itanium_demangle4Node4KindEEENSt9enable_ifIXoosr3stdE13is_integral_vIT_Esr3stdE9is_enum_vIS7_EEvE4typeES7_(ptr noundef nonnull align 8 dereferenceable(8) %0, i8 noundef zeroext %1) #0 align 2 {
  %3 = alloca ptr, align 8
  %4 = alloca i8, align 1
  store ptr %0, ptr %3, align 8
  store i8 %1, ptr %4, align 1
  %5 = load ptr, ptr %3, align 8
  %6 = getelementptr inbounds nuw %"struct.(anonymous namespace)::FoldingSetNodeIDBuilder", ptr %5, i32 0, i32 0
  %7 = load ptr, ptr %6, align 8
  %8 = load i8, ptr %4, align 1
  %9 = zext i8 %8 to i64
  call void @_ZN4llvm16FoldingSetNodeID10AddIntegerEy(ptr noundef nonnull align 8 dereferenceable(144) %7, i64 noundef %9)
  ret void
}

; Function Attrs: mustprogress nounwind uwtable
define internal void @_ZN12_GLOBAL__N_111profileCtorIJN4llvm16itanium_demangle9NodeArrayEPNS2_4NodeES3_bbNS4_4PrecEEEEvRNS1_16FoldingSetNodeIDENS4_4KindEDpT_(ptr noundef nonnull align 8 dereferenceable(144) %0, i8 noundef zeroext %1, ptr %2, i64 %3, ptr noundef %4, ptr noundef byval(%"class.llvm::itanium_demangle::NodeArray") align 8 %5, i1 noundef zeroext %6, i1 noundef zeroext %7, i32 noundef %8) #0 {
  %10 = alloca %"class.llvm::itanium_demangle::NodeArray", align 8
  %11 = alloca ptr, align 8
  %12 = alloca i8, align 1
  %13 = alloca ptr, align 8
  %14 = alloca i8, align 1
  %15 = alloca i8, align 1
  %16 = alloca i32, align 4
  %17 = alloca %"struct.(anonymous namespace)::FoldingSetNodeIDBuilder", align 8
  %18 = alloca [7 x i32], align 16
  %19 = alloca %"class.llvm::itanium_demangle::NodeArray", align 8
  %20 = alloca %"class.llvm::itanium_demangle::NodeArray", align 8
  %21 = getelementptr inbounds nuw { ptr, i64 }, ptr %10, i32 0, i32 0
  store ptr %2, ptr %21, align 8
  %22 = getelementptr inbounds nuw { ptr, i64 }, ptr %10, i32 0, i32 1
  store i64 %3, ptr %22, align 8
  store ptr %0, ptr %11, align 8
  store i8 %1, ptr %12, align 1
  store ptr %4, ptr %13, align 8
  %23 = zext i1 %6 to i8
  store i8 %23, ptr %14, align 1
  %24 = zext i1 %7 to i8
  store i8 %24, ptr %15, align 1
  store i32 %8, ptr %16, align 4
  %25 = getelementptr inbounds nuw %"struct.(anonymous namespace)::FoldingSetNodeIDBuilder", ptr %17, i32 0, i32 0
  %26 = load ptr, ptr %11, align 8
  store ptr %26, ptr %25, align 8
  %27 = load i8, ptr %12, align 1
  call void @_ZN12_GLOBAL__N_123FoldingSetNodeIDBuilderclIN4llvm16itanium_demangle4Node4KindEEENSt9enable_ifIXoosr3stdE13is_integral_vIT_Esr3stdE9is_enum_vIS7_EEvE4typeES7_(ptr noundef nonnull align 8 dereferenceable(8) %17, i8 noundef zeroext %27)
  call void @llvm.memcpy.p0.p0.i64(ptr align 8 %19, ptr align 8 %10, i64 16, i1 false)
  %28 = getelementptr inbounds nuw { ptr, i64 }, ptr %19, i32 0, i32 0
  %29 = load ptr, ptr %28, align 8
  %30 = getelementptr inbounds nuw { ptr, i64 }, ptr %19, i32 0, i32 1
  %31 = load i64, ptr %30, align 8
  call void @_ZN12_GLOBAL__N_123FoldingSetNodeIDBuilderclEN4llvm16itanium_demangle9NodeArrayE(ptr noundef nonnull align 8 dereferenceable(8) %17, ptr %29, i64 %31)
  store i32 0, ptr %18, align 4
  %32 = getelementptr inbounds i32, ptr %18, i64 1
  %33 = load ptr, ptr %13, align 8
  call void @_ZN12_GLOBAL__N_123FoldingSetNodeIDBuilderclEPKN4llvm16itanium_demangle4NodeE(ptr noundef nonnull align 8 dereferenceable(8) %17, ptr noundef %33)
  store i32 0, ptr %32, align 4
  %34 = getelementptr inbounds i32, ptr %18, i64 2
  call void @llvm.memcpy.p0.p0.i64(ptr align 8 %20, ptr align 8 %5, i64 16, i1 false)
  %35 = getelementptr inbounds nuw { ptr, i64 }, ptr %20, i32 0, i32 0
  %36 = load ptr, ptr %35, align 8
  %37 = getelementptr inbounds nuw { ptr, i64 }, ptr %20, i32 0, i32 1
  %38 = load i64, ptr %37, align 8
  call void @_ZN12_GLOBAL__N_123FoldingSetNodeIDBuilderclEN4llvm16itanium_demangle9NodeArrayE(ptr noundef nonnull align 8 dereferenceable(8) %17, ptr %36, i64 %38)
  store i32 0, ptr %34, align 4
  %39 = getelementptr inbounds i32, ptr %18, i64 3
  %40 = load i8, ptr %14, align 1
  %41 = trunc i8 %40 to i1
  call void @_ZN12_GLOBAL__N_123FoldingSetNodeIDBuilderclIbEENSt9enable_ifIXoosr3stdE13is_integral_vIT_Esr3stdE9is_enum_vIS3_EEvE4typeES3_(ptr noundef nonnull align 8 dereferenceable(8) %17, i1 noundef zeroext %41)
  store i32 0, ptr %39, align 4
  %42 = getelementptr inbounds i32, ptr %18, i64 4
  %43 = load i8, ptr %15, align 1
  %44 = trunc i8 %43 to i1
  call void @_ZN12_GLOBAL__N_123FoldingSetNodeIDBuilderclIbEENSt9enable_ifIXoosr3stdE13is_integral_vIT_Esr3stdE9is_enum_vIS3_EEvE4typeES3_(ptr noundef nonnull align 8 dereferenceable(8) %17, i1 noundef zeroext %44)
  store i32 0, ptr %42, align 4
  %45 = getelementptr inbounds i32, ptr %18, i64 5
  %46 = load i32, ptr %16, align 4
  call void @_ZN12_GLOBAL__N_123FoldingSetNodeIDBuilderclIN4llvm16itanium_demangle4Node4PrecEEENSt9enable_ifIXoosr3stdE13is_integral_vIT_Esr3stdE9is_enum_vIS7_EEvE4typeES7_(ptr noundef nonnull align 8 dereferenceable(8) %17, i32 noundef %46)
  store i32 0, ptr %45, align 4
  %47 = getelementptr inbounds i32, ptr %18, i64 6
  store i32 0, ptr %47, align 4
  ret void
}