; Function Attrs: mustprogress nounwind uwtable
define internal fastcc void @_ZN12_GLOBAL__N_111profileCtorIJN4llvm16itanium_demangle9NodeArrayEPNS2_4NodeES3_bbNS4_4PrecEEEEvRNS1_16FoldingSetNodeIDENS4_4KindEDpT_(ptr noundef nonnull align 8 dereferenceable(144) %0, ptr readonly %1, i64 %2, ptr noundef %3, ptr readonly %.0.val, i64 %.8.val, i1 noundef zeroext %4, i1 noundef zeroext %5, i32 noundef %6) unnamed_addr #0 {
  tail call void @_ZN4llvm16FoldingSetNodeID10AddIntegerEy(ptr noundef nonnull align 8 dereferenceable(144) %0, i64 noundef 64)
  tail call void @_ZN4llvm16FoldingSetNodeID10AddIntegerEy(ptr noundef nonnull align 8 dereferenceable(144) %0, i64 noundef %2)
  %8 = getelementptr inbounds ptr, ptr %1, i64 %2
  %.not10.i = icmp eq i64 %2, 0
  br i1 %.not10.i, label %_ZN12_GLOBAL__N_123FoldingSetNodeIDBuilderclEN4llvm16itanium_demangle9NodeArrayE.exit, label %.lr.ph.i

.lr.ph.i:                                         ; preds = %7, %.lr.ph.i
  %.011.i = phi ptr [ %11, %.lr.ph.i ], [ %1, %7 ]
  %9 = load ptr, ptr %.011.i, align 8
  %10 = ptrtoint ptr %9 to i64
  tail call void @_ZN4llvm16FoldingSetNodeID10AddIntegerEy(ptr noundef nonnull align 8 dereferenceable(144) %0, i64 noundef %10)
  %11 = getelementptr inbounds nuw i8, ptr %.011.i, i64 8
  %.not.i = icmp eq ptr %11, %8
  br i1 %.not.i, label %_ZN12_GLOBAL__N_123FoldingSetNodeIDBuilderclEN4llvm16itanium_demangle9NodeArrayE.exit, label %.lr.ph.i

_ZN12_GLOBAL__N_123FoldingSetNodeIDBuilderclEN4llvm16itanium_demangle9NodeArrayE.exit: ; preds = %.lr.ph.i, %7
  %12 = ptrtoint ptr %3 to i64
  tail call void @_ZN4llvm16FoldingSetNodeID10AddIntegerEy(ptr noundef nonnull align 8 dereferenceable(144) %0, i64 noundef %12)
  tail call void @_ZN4llvm16FoldingSetNodeID10AddIntegerEy(ptr noundef nonnull align 8 dereferenceable(144) %0, i64 noundef %.8.val)
  %13 = getelementptr inbounds ptr, ptr %.0.val, i64 %.8.val
  %.not10.i15 = icmp eq i64 %.8.val, 0
  br i1 %.not10.i15, label %_ZN12_GLOBAL__N_123FoldingSetNodeIDBuilderclEN4llvm16itanium_demangle9NodeArrayE.exit20, label %.lr.ph.i16

.lr.ph.i16:                                       ; preds = %_ZN12_GLOBAL__N_123FoldingSetNodeIDBuilderclEN4llvm16itanium_demangle9NodeArrayE.exit, %.lr.ph.i16
  %.011.i17 = phi ptr [ %16, %.lr.ph.i16 ], [ %.0.val, %_ZN12_GLOBAL__N_123FoldingSetNodeIDBuilderclEN4llvm16itanium_demangle9NodeArrayE.exit ]
  %14 = load ptr, ptr %.011.i17, align 8
  %15 = ptrtoint ptr %14 to i64
  tail call void @_ZN4llvm16FoldingSetNodeID10AddIntegerEy(ptr noundef nonnull align 8 dereferenceable(144) %0, i64 noundef %15)
  %16 = getelementptr inbounds nuw i8, ptr %.011.i17, i64 8
  %.not.i19 = icmp eq ptr %16, %13
  br i1 %.not.i19, label %_ZN12_GLOBAL__N_123FoldingSetNodeIDBuilderclEN4llvm16itanium_demangle9NodeArrayE.exit20, label %.lr.ph.i16

_ZN12_GLOBAL__N_123FoldingSetNodeIDBuilderclEN4llvm16itanium_demangle9NodeArrayE.exit20: ; preds = %.lr.ph.i16, %_ZN12_GLOBAL__N_123FoldingSetNodeIDBuilderclEN4llvm16itanium_demangle9NodeArrayE.exit
  %17 = zext i1 %4 to i64
  tail call void @_ZN4llvm16FoldingSetNodeID10AddIntegerEy(ptr noundef nonnull align 8 dereferenceable(144) %0, i64 noundef %17)
  %18 = zext i1 %5 to i64
  tail call void @_ZN4llvm16FoldingSetNodeID10AddIntegerEy(ptr noundef nonnull align 8 dereferenceable(144) %0, i64 noundef %18)
  %19 = sext i32 %6 to i64
  tail call void @_ZN4llvm16FoldingSetNodeID10AddIntegerEy(ptr noundef nonnull align 8 dereferenceable(144) %0, i64 noundef %19)
  ret void
}